; Function Attrs: nounwind uwtable
define void @ERR_print_errors_fp(ptr noundef %0) local_unnamed_addr #0 {
  %2 = tail call ptr @BIO_new_fp(ptr noundef %0, i32 noundef 0) #5
  %3 = icmp eq ptr %2, null
  br i1 %3, label %6, label %4

4:                                                ; preds = %1
  tail call void @ERR_print_errors_cb(ptr noundef nonnull @print_bio, ptr noundef nonnull %2)
  %5 = tail call i32 @BIO_free(ptr noundef nonnull %2) #5
  br label %6

6:                                                ; preds = %1, %4
  ret void
}